target datalayout = "e-m:e-p270:32:32-p271:32:32-p272:64:64-i64:64-i128:128-f80:128-n8:16:32:64-S128"
target triple = "x86_64-pc-linux-gnu"

%struct._value_string_ext = type { ptr, i32, i32, ptr, ptr }

@hf_gluster_op_ret = internal global i32 0, align 4
@hf_gluster_op_errno = internal global i32 0, align 4
@.str.11 = private unnamed_addr constant [6 x i8] c" (%s)\00", align 1
@glusterfs_error_codes_ext = internal global %struct._value_string_ext { ptr @_try_val_to_str_ext_init, i32 0, i32 165, ptr @glusterfs_error_codes, ptr @.str.307 }, align 8
@.str.12 = private unnamed_addr constant [8 x i8] c"Unknown\00", align 1
@hf_glusterfs_dict = internal global i32 0, align 4
@hf_glusterfs_fd = internal global i32 0, align 4
@hf_glusterfs_iatt = internal global i32 0, align 4
@hf_glusterfs_preparent_iatt = internal global i32 0, align 4
@hf_glusterfs_postparent_iatt = internal global i32 0, align 4

; Function Attrs: null_pointer_is_valid sspstrong uwtable
define hidden i32 @gluster_dissect_common_reply(ptr noundef %0, i32 noundef %1, ptr noundef %2, ptr noundef %3, ptr noundef %4) #0 {
  %6 = alloca ptr, align 8
  %7 = alloca i32, align 4
  %8 = alloca ptr, align 8
  %9 = alloca ptr, align 8
  %10 = alloca ptr, align 8
  %11 = alloca ptr, align 8
  %12 = alloca i32, align 4
  store ptr %0, ptr %6, align 8
  store i32 %1, ptr %7, align 4
  store ptr %2, ptr %8, align 8
  store ptr %3, ptr %9, align 8
  store ptr %4, ptr %10, align 8
  call void @llvm.lifetime.start.p0(i64 8, ptr %11) #5
  call void @llvm.lifetime.start.p0(i64 4, ptr %12) #5
  %13 = load ptr, ptr %6, align 8
  %14 = load ptr, ptr %9, align 8
  %15 = load i32, ptr @hf_gluster_op_ret, align 4
  %16 = load i32, ptr %7, align 4
  %17 = call i32 @dissect_rpc_uint32(ptr noundef %13, ptr noundef %14, i32 noundef %15, i32 noundef %16)
  store i32 %17, ptr %7, align 4
  %18 = load ptr, ptr %6, align 8
  %19 = load i32, ptr %7, align 4
  %20 = call i32 @tvb_get_ntohl(ptr noundef %18, i32 noundef %19)
  store i32 %20, ptr %12, align 4
  %21 = load ptr, ptr %9, align 8
  %22 = load i32, ptr @hf_gluster_op_errno, align 4
  %23 = load ptr, ptr %6, align 8
  %24 = load i32, ptr %7, align 4
  %25 = load i32, ptr %12, align 4
  %26 = call ptr @proto_tree_add_int(ptr noundef %21, i32 noundef %22, ptr noundef %23, i32 noundef %24, i32 noundef 4, i32 noundef %25)
  store ptr %26, ptr %11, align 8
  %27 = load ptr, ptr %11, align 8
  %28 = load i32, ptr %12, align 4
  %29 = call ptr @val_to_str_ext_const(i32 noundef %28, ptr noundef @glusterfs_error_codes_ext, ptr noundef @.str.12)
  call void (ptr, ptr, ...) @proto_item_append_text(ptr noundef %27, ptr noundef @.str.11, ptr noundef %29)
  %30 = load i32, ptr %7, align 4
  %31 = add i32 %30, 4
  store i32 %31, ptr %7, align 4
  %32 = load i32, ptr %7, align 4
  call void @llvm.lifetime.end.p0(i64 4, ptr %12) #5
  call void @llvm.lifetime.end.p0(i64 8, ptr %11) #5
  ret i32 %32
}

; Function Attrs: null_pointer_is_valid sspstrong uwtable
define internal i32 @glusterfs_gfs3_3_op_create_reply(ptr noundef %0, ptr noundef %1, ptr noundef %2, ptr noundef %3) #0 {
  %5 = alloca ptr, align 8
  %6 = alloca ptr, align 8
  %7 = alloca ptr, align 8
  %8 = alloca ptr, align 8
  %9 = alloca i32, align 4
  store ptr %0, ptr %5, align 8
  store ptr %1, ptr %6, align 8
  store ptr %2, ptr %7, align 8
  store ptr %3, ptr %8, align 8
  call void @llvm.lifetime.start.p0(i64 4, ptr %9) #5
  store i32 0, ptr %9, align 4
  %10 = load ptr, ptr %5, align 8
  %11 = load i32, ptr %9, align 4
  %12 = load ptr, ptr %6, align 8
  %13 = load ptr, ptr %7, align 8
  %14 = load ptr, ptr %8, align 8
  %15 = call i32 @gluster_dissect_common_reply(ptr noundef %10, i32 noundef %11, ptr noundef %12, ptr noundef %13, ptr noundef %14)
  store i32 %15, ptr %9, align 4
  %16 = load ptr, ptr %7, align 8
  %17 = load ptr, ptr %5, align 8
  %18 = load i32, ptr @hf_glusterfs_iatt, align 4
  %19 = load i32, ptr %9, align 4
  %20 = call i32 @glusterfs_rpc_dissect_gf_iatt(ptr noundef %16, ptr noundef %17, i32 noundef %18, i32 noundef %19)
  store i32 %20, ptr %9, align 4
  %21 = load ptr, ptr %5, align 8
  %22 = load ptr, ptr %7, align 8
  %23 = load i32, ptr @hf_glusterfs_fd, align 4
  %24 = load i32, ptr %9, align 4
  %25 = call i32 @dissect_rpc_uint64(ptr noundef %21, ptr noundef %22, i32 noundef %23, i32 noundef %24)
  store i32 %25, ptr %9, align 4
  %26 = load ptr, ptr %7, align 8
  %27 = load ptr, ptr %5, align 8
  %28 = load i32, ptr @hf_glusterfs_preparent_iatt, align 4
  %29 = load i32, ptr %9, align 4
  %30 = call i32 @glusterfs_rpc_dissect_gf_iatt(ptr noundef %26, ptr noundef %27, i32 noundef %28, i32 noundef %29)
  store i32 %30, ptr %9, align 4
  %31 = load ptr, ptr %7, align 8
  %32 = load ptr, ptr %5, align 8
  %33 = load i32, ptr @hf_glusterfs_postparent_iatt, align 4
  %34 = load i32, ptr %9, align 4
  %35 = call i32 @glusterfs_rpc_dissect_gf_iatt(ptr noundef %31, ptr noundef %32, i32 noundef %33, i32 noundef %34)
  store i32 %35, ptr %9, align 4
  %36 = load ptr, ptr %7, align 8
  %37 = load ptr, ptr %5, align 8
  %38 = load i32, ptr @hf_glusterfs_dict, align 4
  %39 = load i32, ptr %9, align 4
  %40 = call i32 @gluster_rpc_dissect_dict(ptr noundef %36, ptr noundef %37, i32 noundef %38, i32 noundef %39)
  store i32 %40, ptr %9, align 4
  %41 = load i32, ptr %9, align 4
  call void @llvm.lifetime.end.p0(i64 4, ptr %9) #5
  ret i32 %41
}